target datalayout = "e-m:e-p270:32:32-p271:32:32-p272:64:64-i64:64-i128:128-f80:128-n8:16:32:64-S128"
target triple = "x86_64-pc-linux-gnu"

%struct.GCRef = type { i64 }
%struct.jit_State = type { %struct.GCtrace, ptr, ptr, ptr, ptr, ptr, ptr, i32, i32, i32, i8, i8, %struct.IRType1, i8, %struct.FoldState, ptr, i32, i32, i32, i32, i32, i32, i32, [1 x i32], [5 x %union.TValue], [3 x %union.TValue], ptr, i32, i32, i32, i32, ptr, ptr, i32, i32, i8, ptr, i32, i32, i16, [101 x i16], [258 x i32], [15 x i32], [16 x ptr], [64 x %struct.HotPenalty], i32, [16 x %struct.BPropEntry], i32, %struct.ScEvEntry, ptr, i32, i32, i32, ptr, i32, i32, ptr, ptr, ptr, i64, i64, %union.TValue, ptr, i32, i32 }
%struct.GCtrace = type { %struct.GCRef, i8, i8, i16, i32, i32, %struct.GCRef, ptr, i32, i32, ptr, ptr, %struct.GCRef, %struct.MRef, i32, i32, ptr, i32, i16, i16, i16, i16, i16, i16, i16, i8, i8, i8, i8 }
%struct.MRef = type { i64 }
%struct.IRType1 = type { i8 }
%struct.FoldState = type { %union.IRIns, [2 x %union.IRIns], [2 x %union.IRIns] }
%union.IRIns = type { %struct.GCRef }
%struct.HotPenalty = type { %struct.MRef, i16, i16 }
%struct.BPropEntry = type { i16, i16, i32 }
%struct.ScEvEntry = type { %struct.MRef, i16, i16, i16, i16, %struct.IRType1, i8 }
%union.TValue = type { i64 }
%struct.RecordFFData = type { ptr, i64, i32 }

; Function Attrs: nounwind uwtable
define internal void @recff_rawequal(ptr noundef %0, ptr noundef %1) #0 {
  %3 = alloca ptr, align 8
  %4 = alloca ptr, align 8
  %5 = alloca i32, align 4
  %6 = alloca i32, align 4
  %7 = alloca i32, align 4
  store ptr %0, ptr %3, align 8, !tbaa !4
  store ptr %1, ptr %4, align 8, !tbaa !46
  call void @llvm.lifetime.start.p0(i64 4, ptr %5) #9
  %8 = load ptr, ptr %3, align 8, !tbaa !4
  %9 = getelementptr inbounds nuw %struct.jit_State, ptr %8, i32 0, i32 6
  %10 = load ptr, ptr %9, align 8, !tbaa !41
  %11 = getelementptr inbounds i32, ptr %10, i64 0
  %12 = load i32, ptr %11, align 4, !tbaa !9
  store i32 %12, ptr %5, align 4, !tbaa !9
  call void @llvm.lifetime.start.p0(i64 4, ptr %6) #9
  %13 = load ptr, ptr %3, align 8, !tbaa !4
  %14 = getelementptr inbounds nuw %struct.jit_State, ptr %13, i32 0, i32 6
  %15 = load ptr, ptr %14, align 8, !tbaa !41
  %16 = getelementptr inbounds i32, ptr %15, i64 1
  %17 = load i32, ptr %16, align 4, !tbaa !9
  store i32 %17, ptr %6, align 4, !tbaa !9
  %18 = load i32, ptr %5, align 4, !tbaa !9
  %19 = icmp ne i32 %18, 0
  br i1 %19, label %20, label %43

20:                                               ; preds = %2
  %21 = load i32, ptr %6, align 4, !tbaa !9
  %22 = icmp ne i32 %21, 0
  br i1 %22, label %23, label %43

23:                                               ; preds = %20
  call void @llvm.lifetime.start.p0(i64 4, ptr %7) #9
  %24 = load ptr, ptr %3, align 8, !tbaa !4
  %25 = load i32, ptr %5, align 4, !tbaa !9
  %26 = load i32, ptr %6, align 4, !tbaa !9
  %27 = load ptr, ptr %4, align 8, !tbaa !46
  %28 = getelementptr inbounds nuw %struct.RecordFFData, ptr %27, i32 0, i32 0
  %29 = load ptr, ptr %28, align 8, !tbaa !40
  %30 = getelementptr inbounds %union.TValue, ptr %29, i64 0
  %31 = load ptr, ptr %4, align 8, !tbaa !46
  %32 = getelementptr inbounds nuw %struct.RecordFFData, ptr %31, i32 0, i32 0
  %33 = load ptr, ptr %32, align 8, !tbaa !40
  %34 = getelementptr inbounds %union.TValue, ptr %33, i64 1
  %35 = call i32 @lj_record_objcmp(ptr noundef %24, i32 noundef %25, i32 noundef %26, ptr noundef %30, ptr noundef %34)
  store i32 %35, ptr %7, align 4, !tbaa !9
  %36 = load i32, ptr %7, align 4, !tbaa !9
  %37 = icmp ne i32 %36, 0
  %38 = select i1 %37, i32 16809982, i32 33587197
  %39 = load ptr, ptr %3, align 8, !tbaa !4
  %40 = getelementptr inbounds nuw %struct.jit_State, ptr %39, i32 0, i32 6
  %41 = load ptr, ptr %40, align 8, !tbaa !41
  %42 = getelementptr inbounds i32, ptr %41, i64 0
  store i32 %38, ptr %42, align 4, !tbaa !9
  call void @llvm.lifetime.end.p0(i64 4, ptr %7) #9
  br label %43

43:                                               ; preds = %23, %20, %2
  call void @llvm.lifetime.end.p0(i64 4, ptr %6) #9
  call void @llvm.lifetime.end.p0(i64 4, ptr %5) #9
  ret void
}