; Function Attrs: nounwind uwtable
define internal void @recff_rawequal(ptr noundef %0, ptr noundef readonly captures(none) %1) #0 {
  %3 = getelementptr inbounds nuw i8, ptr %0, i64 160
  %4 = load ptr, ptr %3, align 8, !tbaa !37
  %5 = load i32, ptr %4, align 4, !tbaa !39
  %6 = getelementptr inbounds nuw i8, ptr %4, i64 4
  %7 = load i32, ptr %6, align 4, !tbaa !39
  %8 = icmp ne i32 %5, 0
  %9 = icmp ne i32 %7, 0
  %or.cond = select i1 %8, i1 %9, i1 false
  br i1 %or.cond, label %10, label %16

10:                                               ; preds = %2
  %11 = load ptr, ptr %1, align 8, !tbaa !36
  %12 = getelementptr inbounds nuw i8, ptr %11, i64 8
  %13 = tail call i32 @lj_record_objcmp(ptr noundef nonnull %0, i32 noundef %5, i32 noundef %7, ptr noundef %11, ptr noundef nonnull %12) #9
  %.not = icmp eq i32 %13, 0
  %14 = select i1 %.not, i32 33587197, i32 16809982
  %15 = load ptr, ptr %3, align 8, !tbaa !37
  store i32 %14, ptr %15, align 4, !tbaa !39
  br label %16

16:                                               ; preds = %10, %2
  ret void
}